target datalayout = "e-m:e-p270:32:32-p271:32:32-p272:64:64-i64:64-i128:128-f80:128-n8:16:32:64-S128"
target triple = "x86_64-pc-linux-gnu"

%"class.gmx::AnalysisDataHandle" = type { ptr }
%"class.gmx::internal::AnalysisDataHandleImpl" = type { ptr, ptr }
%class.anon.71 = type { i8 }
%class.anon.73 = type { i8 }

@.str.2 = private unnamed_addr constant [135 x i8] c"generated/home/dtcxzyw/WorkSpace/Projects/compilers/llvm-opt-benchmark/bench/gromacs/gromacs/src/gromacs/analysisdata/analysisdata.cpp\00", align 1
@.str.9 = private unnamed_addr constant [17 x i8] c"impl_ != nullptr\00", align 1
@.str.10 = private unnamed_addr constant [25 x i8] c"Invalid data handle used\00", align 1
@.str.13 = private unnamed_addr constant [32 x i8] c"impl_->currentFrame_ != nullptr\00", align 1
@"__PRETTY_FUNCTION__._ZZN3gmx18AnalysisDataHandle11finishFrameEvENK3$_0clEv" = private unnamed_addr constant [83 x i8] c"auto gmx::AnalysisDataHandle::finishFrame()::(anonymous class)::operator()() const\00", align 1
@.str.20 = private unnamed_addr constant [50 x i8] c"finishFrame() called without calling startFrame()\00", align 1

; Function Attrs: inlinehint mustprogress uwtable
define internal void @"_ZZN3gmx18AnalysisDataHandle11finishFrameEvENK3$_1clEv"(ptr noundef nonnull align 1 dereferenceable(1) %0) #4 align 2 {
  %2 = alloca ptr, align 8
  store ptr %0, ptr %2, align 8, !tbaa !78
  call void @_ZN3gmx8internal13assertHandlerEPKcS2_S2_S2_i(ptr noundef @.str.13, ptr noundef @.str.20, ptr noundef @"__PRETTY_FUNCTION__._ZZN3gmx18AnalysisDataHandle11finishFrameEvENK3$_0clEv", ptr noundef @.str.2, i32 noundef 281) #17
  unreachable
}

; Function Attrs: inlinehint mustprogress uwtable
define internal void @"_ZZN3gmx18AnalysisDataHandle11finishFrameEvENK3$_0clEv"(ptr noundef nonnull align 1 dereferenceable(1) %0) #4 align 2 {
  %2 = alloca ptr, align 8
  store ptr %0, ptr %2, align 8, !tbaa !78
  call void @_ZN3gmx8internal13assertHandlerEPKcS2_S2_S2_i(ptr noundef @.str.9, ptr noundef @.str.10, ptr noundef @"__PRETTY_FUNCTION__._ZZN3gmx18AnalysisDataHandle11finishFrameEvENK3$_0clEv", ptr noundef @.str.2, i32 noundef 279) #17
  unreachable
}

; Function Attrs: mustprogress uwtable
define void @_ZN3gmx18AnalysisDataHandle11finishFrameEv(ptr noundef nonnull align 8 dereferenceable(8) %0) #1 align 2 {
  %2 = alloca ptr, align 8
  %3 = alloca %class.anon.71, align 1
  %4 = alloca %class.anon.73, align 1
  %5 = alloca ptr, align 8
  store ptr %0, ptr %2, align 8, !tbaa !115
  %6 = load ptr, ptr %2, align 8
  %7 = getelementptr inbounds nuw %"class.gmx::AnalysisDataHandle", ptr %6, i32 0, i32 0
  %8 = load ptr, ptr %7, align 8, !tbaa !111
  %9 = icmp ne ptr %8, null
  call void @llvm.lifetime.start.p0(i64 1, ptr %3) #13
  br i1 %9, label %10, label %11

10:                                               ; preds = %1
  br label %12

11:                                               ; preds = %1
  call void @"_ZZN3gmx18AnalysisDataHandle11finishFrameEvENK3$_0clEv"(ptr noundef nonnull align 1 dereferenceable(1) %3)
  br label %12

12:                                               ; preds = %11, %10
  call void @llvm.lifetime.end.p0(i64 1, ptr %3) #13
  %13 = getelementptr inbounds nuw %"class.gmx::AnalysisDataHandle", ptr %6, i32 0, i32 0
  %14 = load ptr, ptr %13, align 8, !tbaa !111
  %15 = getelementptr inbounds nuw %"class.gmx::internal::AnalysisDataHandleImpl", ptr %14, i32 0, i32 1
  %16 = load ptr, ptr %15, align 8, !tbaa !93
  %17 = icmp ne ptr %16, null
  call void @llvm.lifetime.start.p0(i64 1, ptr %4) #13
  br i1 %17, label %18, label %19

18:                                               ; preds = %12
  br label %20

19:                                               ; preds = %12
  call void @"_ZZN3gmx18AnalysisDataHandle11finishFrameEvENK3$_1clEv"(ptr noundef nonnull align 1 dereferenceable(1) %4)
  br label %20

20:                                               ; preds = %19, %18
  call void @llvm.lifetime.end.p0(i64 1, ptr %4) #13
  call void @llvm.lifetime.start.p0(i64 8, ptr %5) #13
  %21 = getelementptr inbounds nuw %"class.gmx::AnalysisDataHandle", ptr %6, i32 0, i32 0
  %22 = load ptr, ptr %21, align 8, !tbaa !111
  %23 = getelementptr inbounds nuw %"class.gmx::internal::AnalysisDataHandleImpl", ptr %22, i32 0, i32 1
  %24 = load ptr, ptr %23, align 8, !tbaa !93
  store ptr %24, ptr %5, align 8, !tbaa !120
  %25 = getelementptr inbounds nuw %"class.gmx::AnalysisDataHandle", ptr %6, i32 0, i32 0
  %26 = load ptr, ptr %25, align 8, !tbaa !111
  %27 = getelementptr inbounds nuw %"class.gmx::internal::AnalysisDataHandleImpl", ptr %26, i32 0, i32 1
  store ptr null, ptr %27, align 8, !tbaa !93
  %28 = load ptr, ptr %5, align 8, !tbaa !120
  call void @_ZN3gmx24AnalysisDataStorageFrame11finishFrameEv(ptr noundef nonnull align 8 dereferenceable(45) %28)
  call void @llvm.lifetime.end.p0(i64 8, ptr %5) #13
  ret void
}