; Function Attrs: mustprogress uwtable
define void @_ZN3gmx18AnalysisDataHandle11finishFrameEv(ptr noundef nonnull readonly align 8 captures(none) dereferenceable(8) %0) local_unnamed_addr #1 align 2 {
  %2 = load ptr, ptr %0, align 8, !tbaa !37
  %.not = icmp eq ptr %2, null
  br i1 %.not, label %3, label %4

3:                                                ; preds = %1
  tail call void @_ZN3gmx8internal13assertHandlerEPKcS2_S2_S2_i(ptr noundef nonnull @.str.9, ptr noundef nonnull @.str.10, ptr noundef nonnull @"__PRETTY_FUNCTION__._ZZN3gmx18AnalysisDataHandle11finishFrameEvENK3$_0clEv", ptr noundef nonnull @.str.2, i32 noundef 279) #15
  unreachable

4:                                                ; preds = %1
  %5 = getelementptr inbounds nuw i8, ptr %2, i64 8
  %6 = load ptr, ptr %5, align 8, !tbaa !26
  %.not2 = icmp eq ptr %6, null
  br i1 %.not2, label %7, label %8

7:                                                ; preds = %4
  tail call void @_ZN3gmx8internal13assertHandlerEPKcS2_S2_S2_i(ptr noundef nonnull @.str.13, ptr noundef nonnull @.str.20, ptr noundef nonnull @"__PRETTY_FUNCTION__._ZZN3gmx18AnalysisDataHandle11finishFrameEvENK3$_0clEv", ptr noundef nonnull @.str.2, i32 noundef 281) #15
  unreachable

8:                                                ; preds = %4
  store ptr null, ptr %5, align 8, !tbaa !26
  tail call void @_ZN3gmx24AnalysisDataStorageFrame11finishFrameEv(ptr noundef nonnull align 8 dereferenceable(45) %6)
  ret void
}